; ModuleID = '42/712.c'
source_filename = "42/712.c"
target datalayout = "e-m:e-p270:32:32-p271:32:32-p272:64:64-i64:64-f80:128-n8:16:32:64-S128"
target triple = "x86_64-pc-linux-gnu"

@.str = private unnamed_addr constant [3 x i8] c"%d\00", align 1
@.str.1 = private unnamed_addr constant [4 x i8] c" %d\00", align 1

; Function Attrs: noinline nounwind uwtable
define dso_local i32 @main() #0 {
  %1 = alloca i32, align 4
  %2 = alloca i32, align 4
  %3 = alloca [100000 x i32], align 16
  %4 = alloca i32, align 4
  %5 = alloca i32, align 4
  %6 = alloca i32, align 4
  store i32 0, i32* %1, align 4
  %7 = call i32 (i8*, ...) @__isoc99_scanf(i8* getelementptr inbounds ([3 x i8], [3 x i8]* @.str, i64 0, i64 0), i32* %2)
  store i32 0, i32* %5, align 4
  br label %8

8:                                                ; preds = %17, %0
  %9 = load i32, i32* %5, align 4
  %10 = load i32, i32* %2, align 4
  %11 = icmp slt i32 %9, %10
  br i1 %11, label %12, label %20

12:                                               ; preds = %8
  %13 = load i32, i32* %5, align 4
  %14 = sext i32 %13 to i64
  %15 = getelementptr inbounds [100000 x i32], [100000 x i32]* %3, i64 0, i64 %14
  %16 = call i32 (i8*, ...) @__isoc99_scanf(i8* getelementptr inbounds ([3 x i8], [3 x i8]* @.str, i64 0, i64 0), i32* %15)
  br label %17

17:                                               ; preds = %12
  %18 = load i32, i32* %5, align 4
  %19 = add nsw i32 %18, 1
  store i32 %19, i32* %5, align 4
  br label %8

20:                                               ; preds = %8
  %21 = call i32 (i8*, ...) @__isoc99_scanf(i8* getelementptr inbounds ([3 x i8], [3 x i8]* @.str, i64 0, i64 0), i32* %4)
  store i32 0, i32* %5, align 4
  br label %22

22:                                               ; preds = %38, %20
  %23 = load i32, i32* %5, align 4
  %24 = load i32, i32* %2, align 4
  %25 = icmp slt i32 %23, %24
  br i1 %25, label %26, label %41

26:                                               ; preds = %22
  %27 = load i32, i32* %5, align 4
  %28 = sext i32 %27 to i64
  %29 = getelementptr inbounds [100000 x i32], [100000 x i32]* %3, i64 0, i64 %28
  %30 = load i32, i32* %29, align 4
  %31 = load i32, i32* %4, align 4
  %32 = icmp eq i32 %30, %31
  br i1 %32, label %33, label %37

33:                                               ; preds = %26
  %34 = load i32, i32* %5, align 4
  %35 = sext i32 %34 to i64
  %36 = getelementptr inbounds [100000 x i32], [100000 x i32]* %3, i64 0, i64 %35
  store i32 65500, i32* %36, align 4
  br label %37

37:                                               ; preds = %33, %26
  br label %38

38:                                               ; preds = %37
  %39 = load i32, i32* %5, align 4
  %40 = add nsw i32 %39, 1
  store i32 %40, i32* %5, align 4
  br label %22

41:                                               ; preds = %22
  store i32 0, i32* %5, align 4
  br label %42

42:                                               ; preds = %59, %41
  %43 = load i32, i32* %5, align 4
  %44 = load i32, i32* %2, align 4
  %45 = icmp slt i32 %43, %44
  br i1 %45, label %46, label %62

46:                                               ; preds = %42
  %47 = load i32, i32* %5, align 4
  %48 = sext i32 %47 to i64
  %49 = getelementptr inbounds [100000 x i32], [100000 x i32]* %3, i64 0, i64 %48
  %50 = load i32, i32* %49, align 4
  %51 = icmp ne i32 %50, 65500
  br i1 %51, label %52, label %58

52:                                               ; preds = %46
  %53 = load i32, i32* %5, align 4
  %54 = sext i32 %53 to i64
  %55 = getelementptr inbounds [100000 x i32], [100000 x i32]* %3, i64 0, i64 %54
  %56 = load i32, i32* %55, align 4
  %57 = call i32 (i8*, ...) @printf(i8* getelementptr inbounds ([3 x i8], [3 x i8]* @.str, i64 0, i64 0), i32 %56)
  br label %62

58:                                               ; preds = %46
  br label %59

59:                                               ; preds = %58
  %60 = load i32, i32* %5, align 4
  %61 = add nsw i32 %60, 1
  store i32 %61, i32* %5, align 4
  br label %42

62:                                               ; preds = %52, %42
  %63 = load i32, i32* %5, align 4
  %64 = add nsw i32 %63, 1
  store i32 %64, i32* %6, align 4
  br label %65

65:                                               ; preds = %82, %62
  %66 = load i32, i32* %6, align 4
  %67 = load i32, i32* %2, align 4
  %68 = icmp slt i32 %66, %67
  br i1 %68, label %69, label %85

69:                                               ; preds = %65
  %70 = load i32, i32* %6, align 4
  %71 = sext i32 %70 to i64
  %72 = getelementptr inbounds [100000 x i32], [100000 x i32]* %3, i64 0, i64 %71
  %73 = load i32, i32* %72, align 4
  %74 = icmp ne i32 %73, 65500
  br i1 %74, label %75, label %81

75:                                               ; preds = %69
  %76 = load i32, i32* %6, align 4
  %77 = sext i32 %76 to i64
  %78 = getelementptr inbounds [100000 x i32], [100000 x i32]* %3, i64 0, i64 %77
  %79 = load i32, i32* %78, align 4
  %80 = call i32 (i8*, ...) @printf(i8* getelementptr inbounds ([4 x i8], [4 x i8]* @.str.1, i64 0, i64 0), i32 %79)
  br label %81

81:                                               ; preds = %75, %69
  br label %82

82:                                               ; preds = %81
  %83 = load i32, i32* %6, align 4
  %84 = add nsw i32 %83, 1
  store i32 %84, i32* %6, align 4
  br label %65

85:                                               ; preds = %65
  ret i32 0
}

declare dso_local i32 @__isoc99_scanf(i8*, ...) #1

declare dso_local i32 @printf(i8*, ...) #1


!llvm.module.flags = !{!0}
!llvm.ident = !{!1}

!0 = !{i32 1, !"wchar_size", i32 4}
!1 = !{!"clang version 10.0.0-4ubuntu1 "}
