; ModuleID = 'source-C-CXX/41/712.c'
source_filename = "source-C-CXX/41/712.c"
target datalayout = "e-m:e-p270:32:32-p271:32:32-p272:64:64-i64:64-f80:128-n8:16:32:64-S128"
target triple = "x86_64-pc-linux-gnu"

@.str = private unnamed_addr constant [3 x i8] c"%d\00", align 1
@.str.1 = private unnamed_addr constant [4 x i8] c" %d\00", align 1

; Function Attrs: nofree nounwind sspstrong uwtable
define dso_local i32 @main() local_unnamed_addr #0 {
  %1 = alloca i32, align 4
  %2 = alloca [100000 x i32], align 16
  %3 = alloca i32, align 4
  %4 = bitcast i32* %1 to i8*
  call void @llvm.lifetime.start.p0i8(i64 4, i8* nonnull %4) #3
  %5 = bitcast [100000 x i32]* %2 to i8*
  call void @llvm.lifetime.start.p0i8(i64 400000, i8* nonnull %5) #3
  %6 = bitcast i32* %3 to i8*
  call void @llvm.lifetime.start.p0i8(i64 4, i8* nonnull %6) #3
  %7 = call i32 (i8*, ...) @__isoc99_scanf(i8* getelementptr inbounds ([3 x i8], [3 x i8]* @.str, i64 0, i64 0), i32* nonnull %1)
  %8 = load i32, i32* %1, align 4, !tbaa !5
  %9 = icmp sgt i32 %8, 0
  br i1 %9, label %10, label %18

10:                                               ; preds = %0, %10
  %11 = phi i64 [ %14, %10 ], [ 0, %0 ]
  %12 = getelementptr inbounds [100000 x i32], [100000 x i32]* %2, i64 0, i64 %11
  %13 = call i32 (i8*, ...) @__isoc99_scanf(i8* getelementptr inbounds ([3 x i8], [3 x i8]* @.str, i64 0, i64 0), i32* nonnull %12)
  %14 = add nuw nsw i64 %11, 1
  %15 = load i32, i32* %1, align 4, !tbaa !5
  %16 = sext i32 %15 to i64
  %17 = icmp slt i64 %14, %16
  br i1 %17, label %10, label %18, !llvm.loop !9

18:                                               ; preds = %10, %0
  %19 = call i32 (i8*, ...) @__isoc99_scanf(i8* getelementptr inbounds ([3 x i8], [3 x i8]* @.str, i64 0, i64 0), i32* nonnull %3)
  %20 = load i32, i32* %1, align 4, !tbaa !5
  %21 = load i32, i32* %3, align 4
  %22 = icmp sgt i32 %20, 0
  br i1 %22, label %23, label %110

23:                                               ; preds = %18
  %24 = zext i32 %20 to i64
  %25 = icmp ult i32 %20, 8
  br i1 %25, label %84, label %26

26:                                               ; preds = %23
  %27 = and i64 %24, 4294967288
  %28 = insertelement <4 x i32> poison, i32 %21, i32 0
  %29 = shufflevector <4 x i32> %28, <4 x i32> poison, <4 x i32> zeroinitializer
  %30 = insertelement <4 x i32> poison, i32 %21, i32 0
  %31 = shufflevector <4 x i32> %30, <4 x i32> poison, <4 x i32> zeroinitializer
  br label %32

32:                                               ; preds = %79, %26
  %33 = phi i64 [ 0, %26 ], [ %80, %79 ]
  %34 = getelementptr inbounds [100000 x i32], [100000 x i32]* %2, i64 0, i64 %33
  %35 = bitcast i32* %34 to <4 x i32>*
  %36 = load <4 x i32>, <4 x i32>* %35, align 16, !tbaa !5
  %37 = getelementptr inbounds i32, i32* %34, i64 4
  %38 = bitcast i32* %37 to <4 x i32>*
  %39 = load <4 x i32>, <4 x i32>* %38, align 16, !tbaa !5
  %40 = icmp eq <4 x i32> %36, %29
  %41 = icmp eq <4 x i32> %39, %31
  %42 = extractelement <4 x i1> %40, i32 0
  br i1 %42, label %43, label %44

43:                                               ; preds = %32
  store i32 65500, i32* %34, align 16, !tbaa !5
  br label %44

44:                                               ; preds = %43, %32
  %45 = extractelement <4 x i1> %40, i32 1
  br i1 %45, label %46, label %49

46:                                               ; preds = %44
  %47 = or i64 %33, 1
  %48 = getelementptr inbounds [100000 x i32], [100000 x i32]* %2, i64 0, i64 %47
  store i32 65500, i32* %48, align 4, !tbaa !5
  br label %49

49:                                               ; preds = %46, %44
  %50 = extractelement <4 x i1> %40, i32 2
  br i1 %50, label %51, label %54

51:                                               ; preds = %49
  %52 = or i64 %33, 2
  %53 = getelementptr inbounds [100000 x i32], [100000 x i32]* %2, i64 0, i64 %52
  store i32 65500, i32* %53, align 8, !tbaa !5
  br label %54

54:                                               ; preds = %51, %49
  %55 = extractelement <4 x i1> %40, i32 3
  br i1 %55, label %56, label %59

56:                                               ; preds = %54
  %57 = or i64 %33, 3
  %58 = getelementptr inbounds [100000 x i32], [100000 x i32]* %2, i64 0, i64 %57
  store i32 65500, i32* %58, align 4, !tbaa !5
  br label %59

59:                                               ; preds = %56, %54
  %60 = extractelement <4 x i1> %41, i32 0
  br i1 %60, label %61, label %64

61:                                               ; preds = %59
  %62 = or i64 %33, 4
  %63 = getelementptr inbounds [100000 x i32], [100000 x i32]* %2, i64 0, i64 %62
  store i32 65500, i32* %63, align 16, !tbaa !5
  br label %64

64:                                               ; preds = %61, %59
  %65 = extractelement <4 x i1> %41, i32 1
  br i1 %65, label %66, label %69

66:                                               ; preds = %64
  %67 = or i64 %33, 5
  %68 = getelementptr inbounds [100000 x i32], [100000 x i32]* %2, i64 0, i64 %67
  store i32 65500, i32* %68, align 4, !tbaa !5
  br label %69

69:                                               ; preds = %66, %64
  %70 = extractelement <4 x i1> %41, i32 2
  br i1 %70, label %71, label %74

71:                                               ; preds = %69
  %72 = or i64 %33, 6
  %73 = getelementptr inbounds [100000 x i32], [100000 x i32]* %2, i64 0, i64 %72
  store i32 65500, i32* %73, align 8, !tbaa !5
  br label %74

74:                                               ; preds = %71, %69
  %75 = extractelement <4 x i1> %41, i32 3
  br i1 %75, label %76, label %79

76:                                               ; preds = %74
  %77 = or i64 %33, 7
  %78 = getelementptr inbounds [100000 x i32], [100000 x i32]* %2, i64 0, i64 %77
  store i32 65500, i32* %78, align 4, !tbaa !5
  br label %79

79:                                               ; preds = %76, %74
  %80 = add nuw i64 %33, 8
  %81 = icmp eq i64 %80, %27
  br i1 %81, label %82, label %32, !llvm.loop !11

82:                                               ; preds = %79
  %83 = icmp eq i64 %27, %24
  br i1 %83, label %86, label %84

84:                                               ; preds = %23, %82
  %85 = phi i64 [ 0, %23 ], [ %27, %82 ]
  br label %89

86:                                               ; preds = %95, %82
  br i1 %22, label %87, label %110

87:                                               ; preds = %86
  %88 = zext i32 %20 to i64
  br label %98

89:                                               ; preds = %84, %95
  %90 = phi i64 [ %96, %95 ], [ %85, %84 ]
  %91 = getelementptr inbounds [100000 x i32], [100000 x i32]* %2, i64 0, i64 %90
  %92 = load i32, i32* %91, align 4, !tbaa !5
  %93 = icmp eq i32 %92, %21
  br i1 %93, label %94, label %95

94:                                               ; preds = %89
  store i32 65500, i32* %91, align 4, !tbaa !5
  br label %95

95:                                               ; preds = %89, %94
  %96 = add nuw nsw i64 %90, 1
  %97 = icmp eq i64 %96, %24
  br i1 %97, label %86, label %89, !llvm.loop !13

98:                                               ; preds = %87, %107
  %99 = phi i64 [ 0, %87 ], [ %108, %107 ]
  %100 = getelementptr inbounds [100000 x i32], [100000 x i32]* %2, i64 0, i64 %99
  %101 = load i32, i32* %100, align 4, !tbaa !5
  %102 = icmp eq i32 %101, 65500
  br i1 %102, label %107, label %103

103:                                              ; preds = %98
  %104 = trunc i64 %99 to i32
  %105 = call i32 (i8*, ...) @printf(i8* nonnull dereferenceable(1) getelementptr inbounds ([3 x i8], [3 x i8]* @.str, i64 0, i64 0), i32 %101)
  %106 = load i32, i32* %1, align 4, !tbaa !5
  br label %110

107:                                              ; preds = %98
  %108 = add nuw nsw i64 %99, 1
  %109 = icmp eq i64 %108, %88
  br i1 %109, label %110, label %98, !llvm.loop !15

110:                                              ; preds = %107, %18, %86, %103
  %111 = phi i32 [ %106, %103 ], [ %20, %86 ], [ %20, %18 ], [ %20, %107 ]
  %112 = phi i32 [ %104, %103 ], [ 0, %86 ], [ 0, %18 ], [ %20, %107 ]
  %113 = add i32 %112, 1
  %114 = icmp slt i32 %113, %111
  br i1 %114, label %115, label %131

115:                                              ; preds = %110
  %116 = zext i32 %113 to i64
  br label %117

117:                                              ; preds = %115, %126
  %118 = phi i32 [ %111, %115 ], [ %127, %126 ]
  %119 = phi i64 [ %116, %115 ], [ %128, %126 ]
  %120 = getelementptr inbounds [100000 x i32], [100000 x i32]* %2, i64 0, i64 %119
  %121 = load i32, i32* %120, align 4, !tbaa !5
  %122 = icmp eq i32 %121, 65500
  br i1 %122, label %126, label %123

123:                                              ; preds = %117
  %124 = call i32 (i8*, ...) @printf(i8* nonnull dereferenceable(1) getelementptr inbounds ([4 x i8], [4 x i8]* @.str.1, i64 0, i64 0), i32 %121)
  %125 = load i32, i32* %1, align 4, !tbaa !5
  br label %126

126:                                              ; preds = %117, %123
  %127 = phi i32 [ %118, %117 ], [ %125, %123 ]
  %128 = add nuw nsw i64 %119, 1
  %129 = trunc i64 %128 to i32
  %130 = icmp sgt i32 %127, %129
  br i1 %130, label %117, label %131, !llvm.loop !16

131:                                              ; preds = %126, %110
  call void @llvm.lifetime.end.p0i8(i64 4, i8* nonnull %6) #3
  call void @llvm.lifetime.end.p0i8(i64 400000, i8* nonnull %5) #3
  call void @llvm.lifetime.end.p0i8(i64 4, i8* nonnull %4) #3
  ret i32 0
}

; Function Attrs: argmemonly mustprogress nofree nosync nounwind willreturn
declare void @llvm.lifetime.start.p0i8(i64 immarg, i8* nocapture) #1

; Function Attrs: nofree nounwind
declare noundef i32 @__isoc99_scanf(i8* nocapture noundef readonly, ...) local_unnamed_addr #2

; Function Attrs: nofree nounwind
declare noundef i32 @printf(i8* nocapture noundef readonly, ...) local_unnamed_addr #2

; Function Attrs: argmemonly mustprogress nofree nosync nounwind willreturn
declare void @llvm.lifetime.end.p0i8(i64 immarg, i8* nocapture) #1


!llvm.module.flags = !{!0, !1, !2, !3}
!llvm.ident = !{!4}

!0 = !{i32 1, !"wchar_size", i32 4}
!1 = !{i32 7, !"PIC Level", i32 2}
!2 = !{i32 7, !"PIE Level", i32 2}
!3 = !{i32 7, !"uwtable", i32 1}
!4 = !{!"clang version 13.0.0"}
!5 = !{!6, !6, i64 0}
!6 = !{!"int", !7, i64 0}
!7 = !{!"omnipotent char", !8, i64 0}
!8 = !{!"Simple C/C++ TBAA"}
!9 = distinct !{!9, !10}
!10 = !{!"llvm.loop.mustprogress"}
!11 = distinct !{!11, !10, !12}
!12 = !{!"llvm.loop.isvectorized", i32 1}
!13 = distinct !{!13, !10, !14, !12}
!14 = !{!"llvm.loop.unroll.runtime.disable"}
!15 = distinct !{!15, !10}
!16 = distinct !{!16, !10}
